(dp0
Vfullscreen_mode
p1
I0
sVorientation
p2
Vhorizontal
p3
sVfocus
p4
(lp5
I94170778388272
aI94170778378736
asVsticky
p6
I00
sVurgent
p7
I00
sVlast_split_layout
p8
Vsplith
p9
sVfloating
p10
Vauto_off
p11
sVborder
p12
Vnormal
p13
sVid
p14
I94170778305888
sVcurrent_border_width
p15
I-1
sVlayout
p16
Vsplith
p17
sVpercent
p18
NsVworkspace_layout
p19
Vdefault
p20
sVwindow
p21
NsVnodes
p22
(lp23
(dp24
Vfullscreen_mode
p25
I0
sVorientation
p26
Vnone
p27
sVfocus
p28
(lp29
I94170778381840
asVsticky
p30
I00
sVurgent
p31
I00
sVlast_split_layout
p32
Vsplith
p33
sVfloating
p34
Vauto_off
p35
sVborder
p36
Vnormal
p37
sVid
p38
I94170778378736
sVcurrent_border_width
p39
I-1
sVlayout
p40
Voutput
p41
sVpercent
p42
F0.5
sVworkspace_layout
p43
Vdefault
p44
sVwindow
p45
NsVnodes
p46
(lp47
(dp48
Vfullscreen_mode
p49
I0
sVorientation
p50
Vhorizontal
p51
sVfocus
p52
(lp53
I94170778384944
asVsticky
p54
I00
sVurgent
p55
I00
sVlast_split_layout
p56
Vsplith
p57
sVfloating
p58
Vauto_off
p59
sVborder
p60
Vnormal
p61
sVid
p62
I94170778381840
sVcurrent_border_width
p63
I-1
sVlayout
p64
Vsplith
p65
sVpercent
p66
NsVworkspace_layout
p67
Vdefault
p68
sVwindow
p69
NsVnodes
p70
(lp71
(dp72
Vfullscreen_mode
p73
I1
sVorientation
p74
Vnone
p75
sVfocus
p76
(lp77
sVsticky
p78
I00
sVurgent
p79
I00
sVnum
p80
I-1
sVlast_split_layout
p81
Vsplith
p82
sVfloating
p83
Vauto_off
p84
sVborder
p85
Vnormal
p86
sVid
p87
I94170778384944
sVcurrent_border_width
p88
I-1
sVlayout
p89
Vsplith
p90
sVpercent
p91
NsVworkspace_layout
p92
Vdefault
p93
sVwindow
p94
NsVnodes
p95
(lp96
sVtype
p97
Vworkspace
p98
sVdeco_rect
p99
(dp100
Vy
p101
I0
sVx
p102
I0
sVheight
p103
I0
sVwidth
p104
I0
ssVswallows
p105
(lp106
sVfocused
p107
I00
sVscratchpad_state
p108
Vnone
p109
sVrect
p110
(dp111
g101
I0
sg102
I0
sVheight
p112
I0
sVwidth
p113
I0
ssVwindow_rect
p114
(dp115
g101
I0
sg102
I0
sVheight
p116
I0
sVwidth
p117
I0
ssVname
p118
V__i3_scratch
p119
sVgeometry
p120
(dp121
g101
I0
sg102
I0
sVheight
p122
I0
sVwidth
p123
I0
ssVgaps
p124
(dp125
Vouter
p126
I0
sVinner
p127
I0
ssVfloating_nodes
p128
(lp129
sVoutput
p130
V__i3
p131
sasVtype
p132
Vcon
p133
sVdeco_rect
p134
(dp135
g101
I0
sg102
I0
sVheight
p136
I0
sVwidth
p137
I0
ssVswallows
p138
(lp139
sVfocused
p140
I00
sVscratchpad_state
p141
Vnone
p142
sVrect
p143
(dp144
g101
I0
sg102
I0
sVheight
p145
I0
sVwidth
p146
I0
ssVwindow_rect
p147
(dp148
g101
I0
sg102
I0
sVheight
p149
I0
sVwidth
p150
I0
ssVname
p151
Vcontent
p152
sVgeometry
p153
(dp154
g101
I0
sg102
I0
sVheight
p155
I0
sVwidth
p156
I0
ssVfloating_nodes
p157
(lp158
sVoutput
p159
V__i3
p160
sasVtype
p161
Voutput
p162
sVdeco_rect
p163
(dp164
g101
I0
sg102
I0
sVheight
p165
I0
sVwidth
p166
I0
ssVswallows
p167
(lp168
sVfocused
p169
I00
sVscratchpad_state
p170
Vnone
p171
sVrect
p172
(dp173
g101
I0
sg102
I0
sVheight
p174
I800
sVwidth
p175
I1280
ssVwindow_rect
p176
(dp177
g101
I0
sg102
I0
sVheight
p178
I0
sVwidth
p179
I0
ssVname
p180
V__i3
p181
sVgeometry
p182
(dp183
g101
I0
sg102
I0
sVheight
p184
I0
sVwidth
p185
I0
ssVfloating_nodes
p186
(lp187
sa(dp188
Vfullscreen_mode
p189
I0
sVorientation
p190
Vnone
p191
sVfocus
p192
(lp193
I94170778394688
aI94170778391440
aI94170778397888
asVsticky
p194
I00
sVurgent
p195
I00
sVlast_split_layout
p196
Vsplith
p197
sVfloating
p198
Vauto_off
p199
sVborder
p200
Vnormal
p201
sVid
p202
I94170778388272
sVcurrent_border_width
p203
I-1
sVlayout
p204
Voutput
p205
sVpercent
p206
F0.5
sVworkspace_layout
p207
Vdefault
p208
sVwindow
p209
NsVnodes
p210
(lp211
(dp212
Vfullscreen_mode
p213
I0
sVorientation
p214
Vnone
p215
sVfocus
p216
(lp217
I94170777874752
asVsticky
p218
I00
sVurgent
p219
I00
sVlast_split_layout
p220
Vsplith
p221
sVfloating
p222
Vauto_off
p223
sVborder
p224
Vnormal
p225
sVid
p226
I94170778391440
sVcurrent_border_width
p227
I-1
sVlayout
p228
Vdockarea
p229
sVpercent
p230
NsVworkspace_layout
p231
Vdefault
p232
sVwindow
p233
NsVnodes
p234
(lp235
(dp236
Vwindow_properties
p237
(dp238
Vinstance
p239
Vi3bar
p240
sVtransient_for
p241
NsVclass
p242
Vi3bar
p243
sVtitle
p244
Vi3bar for output LVDS1
p245
ssVfullscreen_mode
p246
I0
sVorientation
p247
Vnone
p248
sVprocess
p249
S'i3bar'
p250
sVfocus
p251
(lp252
sVsticky
p253
I00
sVurgent
p254
I00
sVlast_split_layout
p255
Vsplith
p256
sVfloating
p257
Vauto_off
p258
sVborder
p259
Vnormal
p260
sVid
p261
I94170777874752
sVcurrent_border_width
p262
I2
sVlayout
p263
Vsplith
p264
sVpercent
p265
F1.0
sVworkspace_layout
p266
Vdefault
p267
sVwindow
p268
I12582918
sVnodes
p269
(lp270
sVtype
p271
Vcon
p272
sVdeco_rect
p273
(dp274
g101
I0
sg102
I0
sVheight
p275
I0
sVwidth
p276
I0
ssVswallows
p277
(lp278
sVfocused
p279
I00
sVscratchpad_state
p280
Vnone
p281
sVrect
p282
(dp283
g101
I0
sg102
I0
sVheight
p284
I23
sVwidth
p285
I1280
ssVwindow_rect
p286
(dp287
g101
I0
sg102
I0
sVheight
p288
I23
sVwidth
p289
I1280
ssVname
p290
Vi3bar for output LVDS1
p291
sVgeometry
p292
(dp293
g101
I777
sg102
I0
sVheight
p294
I23
sVwidth
p295
I1280
ssVfloating_nodes
p296
(lp297
sVoutput
p298
VLVDS1
p299
sasVtype
p300
Vdockarea
p301
sVdeco_rect
p302
(dp303
g101
I0
sg102
I0
sVheight
p304
I0
sVwidth
p305
I0
ssVswallows
p306
(lp307
(dp308
Vdock
p309
I2
sVinsert_where
p310
I2
sasVfocused
p311
I00
sVscratchpad_state
p312
Vnone
p313
sVrect
p314
(dp315
g101
I0
sg102
I0
sVheight
p316
I23
sVwidth
p317
I1280
ssVwindow_rect
p318
(dp319
g101
I0
sg102
I0
sVheight
p320
I0
sVwidth
p321
I0
ssVname
p322
Vtopdock
p323
sVgeometry
p324
(dp325
g101
I0
sg102
I0
sVheight
p326
I0
sVwidth
p327
I0
ssVfloating_nodes
p328
(lp329
sVoutput
p330
VLVDS1
p331
sa(dp332
Vfullscreen_mode
p333
I0
sVorientation
p334
Vhorizontal
p335
sVfocus
p336
(lp337
I94170778171424
aI94170778536944
aI94170778426128
aI94170778550048
aI94170778328992
asVsticky
p338
I00
sVurgent
p339
I00
sVlast_split_layout
p340
Vsplith
p341
sVfloating
p342
Vauto_off
p343
sVborder
p344
Vnormal
p345
sVid
p346
I94170778394688
sVcurrent_border_width
p347
I-1
sVlayout
p348
Vsplith
p349
sVpercent
p350
NsVworkspace_layout
p351
Vdefault
p352
sVwindow
p353
NsVnodes
p354
(lp355
(dp356
Vfullscreen_mode
p357
I0
sVorientation
p358
Vhorizontal
p359
sVfocus
p360
(lp361
I94170778578800
asVsticky
p362
I00
sVurgent
p363
I00
sVnum
p364
I1
sVlast_split_layout
p365
Vsplith
p366
sVfloating
p367
Vauto_off
p368
sVborder
p369
Vnormal
p370
sVid
p371
I94170778426128
sVcurrent_border_width
p372
I-1
sVlayout
p373
Vsplith
p374
sVpercent
p375
F0.1875
sVworkspace_layout
p376
Vdefault
p377
sVwindow
p378
NsVnodes
p379
(lp380
(dp381
Vwindow_properties
p382
(dp383
Vinstance
p384
Vterminator
p385
sVtransient_for
p386
NsVclass
p387
VTerminator
p388
sVtitle
p389
Vnvim
p390
ssVfullscreen_mode
p391
I0
sVorientation
p392
Vnone
p393
sg249
S'terminator'
p394
sVfocus
p395
(lp396
sVsticky
p397
I00
sVurgent
p398
I00
sVlast_split_layout
p399
Vsplith
p400
sVfloating
p401
Vauto_off
p402
sVborder
p403
Vnone
p404
sVid
p405
I94170778578800
sVcurrent_border_width
p406
I2
sVlayout
p407
Vsplith
p408
sVpercent
p409
F1.0
sVworkspace_layout
p410
Vdefault
p411
sVwindow
p412
I25166452
sVnodes
p413
(lp414
sVtype
p415
Vcon
p416
sVdeco_rect
p417
(dp418
g101
I0
sg102
I0
sVheight
p419
I0
sVwidth
p420
I0
ssVswallows
p421
(lp422
sVfocused
p423
I00
sVscratchpad_state
p424
Vnone
p425
sVrect
p426
(dp427
g101
I23
sg102
I0
sVheight
p428
I777
sVwidth
p429
I1280
ssVwindow_rect
p430
(dp431
g101
I0
sg102
I0
sVheight
p432
I777
sVwidth
p433
I1280
ssVname
p434
Vnvim
p435
sVgeometry
p436
(dp437
g101
I0
sg102
I0
sVheight
p438
I668
sVwidth
p439
I882
ssVfloating_nodes
p440
(lp441
sVoutput
p442
VLVDS1
p443
sasVtype
p444
Vworkspace
p445
sVdeco_rect
p446
(dp447
g101
I0
sg102
I0
sVheight
p448
I0
sVwidth
p449
I0
ssVswallows
p450
(lp451
sVfocused
p452
I00
sVscratchpad_state
p453
Vnone
p454
sVrect
p455
(dp456
g101
I23
sg102
I0
sVheight
p457
I777
sVwidth
p458
I1280
ssVwindow_rect
p459
(dp460
g101
I0
sg102
I0
sVheight
p461
I0
sVwidth
p462
I0
ssVname
p463
V1\uf27d
p464
sVgeometry
p465
(dp466
g101
I0
sg102
I0
sVheight
p467
I0
sVwidth
p468
I0
ssVgaps
p469
(dp470
Vouter
p471
I0
sVinner
p472
I0
ssVfloating_nodes
p473
(lp474
sVoutput
p475
VLVDS1
p476
sa(dp477
Vfullscreen_mode
p478
I1
sVorientation
p479
Vhorizontal
p480
sVfocus
p481
(lp482
I94170778538464
asVsticky
p483
I00
sVurgent
p484
I00
sVnum
p485
I2
sVlast_split_layout
p486
Vsplith
p487
sVfloating
p488
Vauto_off
p489
sVborder
p490
Vnormal
p491
sVid
p492
I94170778171424
sVcurrent_border_width
p493
I-1
sVlayout
p494
Vsplith
p495
sVpercent
p496
F0.1875
sVworkspace_layout
p497
Vdefault
p498
sVwindow
p499
NsVnodes
p500
(lp501
(dp502
Vwindow_properties
p503
(dp504
Vinstance
p505
Vterminator
p506
sVtransient_for
p507
NsVclass
p508
VTerminator
p509
sVtitle
p510
Vpython2 i3session save
p511
ssVfullscreen_mode
p512
I0
sVorientation
p513
Vnone
p514
sg249
S'terminator'
p515
sVfocus
p516
(lp517
sVsticky
p518
I00
sVurgent
p519
I00
sVlast_split_layout
p520
Vsplith
p521
sVfloating
p522
Vauto_off
p523
sVborder
p524
Vnone
p525
sVid
p526
I94170778538464
sVcurrent_border_width
p527
I2
sVlayout
p528
Vsplith
p529
sVpercent
p530
F1.0
sVworkspace_layout
p531
Vdefault
p532
sVwindow
p533
I25165831
sVnodes
p534
(lp535
sVtype
p536
Vcon
p537
sVdeco_rect
p538
(dp539
g101
I0
sg102
I0
sVheight
p540
I0
sVwidth
p541
I0
ssVswallows
p542
(lp543
sVfocused
p544
I01
sVscratchpad_state
p545
Vnone
p546
sVrect
p547
(dp548
g101
I23
sg102
I0
sVheight
p549
I777
sVwidth
p550
I1280
ssVwindow_rect
p551
(dp552
g101
I0
sg102
I0
sVheight
p553
I777
sVwidth
p554
I1280
ssVname
p555
Vpython2 i3session save
p556
sVgeometry
p557
(dp558
g101
I0
sg102
I0
sVheight
p559
I668
sVwidth
p560
I882
ssVfloating_nodes
p561
(lp562
sVoutput
p563
VLVDS1
p564
sasVtype
p565
Vworkspace
p566
sVdeco_rect
p567
(dp568
g101
I0
sg102
I0
sVheight
p569
I0
sVwidth
p570
I0
ssVswallows
p571
(lp572
sVfocused
p573
I00
sVscratchpad_state
p574
Vnone
p575
sVrect
p576
(dp577
g101
I23
sg102
I0
sVheight
p578
I777
sVwidth
p579
I1280
ssVwindow_rect
p580
(dp581
g101
I0
sg102
I0
sVheight
p582
I0
sVwidth
p583
I0
ssVname
p584
V2\uf120
p585
sVgeometry
p586
(dp587
g101
I0
sg102
I0
sVheight
p588
I0
sVwidth
p589
I0
ssVgaps
p590
(dp591
Vouter
p592
I0
sVinner
p593
I0
ssVfloating_nodes
p594
(lp595
sVoutput
p596
VLVDS1
p597
sa(dp598
Vfullscreen_mode
p599
I0
sVorientation
p600
Vhorizontal
p601
sVfocus
p602
(lp603
I94170777876192
asVsticky
p604
I00
sVurgent
p605
I00
sVnum
p606
I3
sVlast_split_layout
p607
Vsplith
p608
sVfloating
p609
Vauto_off
p610
sVborder
p611
Vnormal
p612
sVid
p613
I94170778536944
sVcurrent_border_width
p614
I-1
sVlayout
p615
Vsplith
p616
sVpercent
p617
F0.1875
sVworkspace_layout
p618
Vdefault
p619
sVwindow
p620
NsVnodes
p621
(lp622
(dp623
Vwindow_properties
p624
(dp625
Vinstance
p626
Vchromium
p627
sVtransient_for
p628
NsVwindow_role
p629
Vbrowser
p630
sVclass
p631
VChromium
p632
sVtitle
p633
Vjoepestro/i3session: The missing session manager for i3-wm - Chromium
p634
ssVfullscreen_mode
p635
I0
sVorientation
p636
Vnone
p637
sg249
S'chromium'
p638
sVfocus
p639
(lp640
sVsticky
p641
I00
sVurgent
p642
I00
sVlast_split_layout
p643
Vsplith
p644
sVfloating
p645
Vauto_off
p646
sVborder
p647
Vnormal
p648
sVid
p649
I94170777876192
sVcurrent_border_width
p650
I2
sVlayout
p651
Vsplith
p652
sVpercent
p653
F1.0
sVworkspace_layout
p654
Vdefault
p655
sVwindow
p656
I16777217
sVnodes
p657
(lp658
sVtype
p659
Vcon
p660
sVdeco_rect
p661
(dp662
g101
I0
sg102
I0
sVheight
p663
I22
sVwidth
p664
I1280
ssVswallows
p665
(lp666
sVfocused
p667
I00
sVscratchpad_state
p668
Vnone
p669
sVrect
p670
(dp671
g101
I45
sg102
I0
sVheight
p672
I755
sVwidth
p673
I1280
ssVwindow_rect
p674
(dp675
g101
I0
sg102
I2
sVheight
p676
I753
sVwidth
p677
I1276
ssVname
p678
Vjoepestro/i3session: The missing session manager for i3-wm - Chromium
p679
sVgeometry
p680
(dp681
g101
I45
sg102
I2
sVheight
p682
I753
sVwidth
p683
I1276
ssVfloating_nodes
p684
(lp685
sVoutput
p686
VLVDS1
p687
sasVtype
p688
Vworkspace
p689
sVdeco_rect
p690
(dp691
g101
I0
sg102
I0
sVheight
p692
I0
sVwidth
p693
I0
ssVswallows
p694
(lp695
sVfocused
p696
I00
sVscratchpad_state
p697
Vnone
p698
sVrect
p699
(dp700
g101
I23
sg102
I0
sVheight
p701
I777
sVwidth
p702
I1280
ssVwindow_rect
p703
(dp704
g101
I0
sg102
I0
sVheight
p705
I0
sVwidth
p706
I0
ssVname
p707
V3\uf268
p708
sVgeometry
p709
(dp710
g101
I0
sg102
I0
sVheight
p711
I0
sVwidth
p712
I0
ssVgaps
p713
(dp714
Vouter
p715
I0
sVinner
p716
I0
ssVfloating_nodes
p717
(lp718
sVoutput
p719
VLVDS1
p720
sa(dp721
Vfullscreen_mode
p722
I0
sVorientation
p723
Vhorizontal
p724
sVfocus
p725
(lp726
I94170778422080
asVsticky
p727
I00
sVurgent
p728
I00
sVnum
p729
I8
sVlast_split_layout
p730
Vsplith
p731
sVfloating
p732
Vauto_off
p733
sVborder
p734
Vnormal
p735
sVid
p736
I94170778550048
sVcurrent_border_width
p737
I-1
sVlayout
p738
Vsplith
p739
sVpercent
p740
F0.25
sVworkspace_layout
p741
Vdefault
p742
sVwindow
p743
NsVnodes
p744
(lp745
(dp746
Vwindow_properties
p747
(dp748
Vinstance
p749
Vchromium
p750
sVtransient_for
p751
NsVwindow_role
p752
Vbrowser
p753
sVclass
p754
VChromium
p755
sVtitle
p756
Veokoe - Chat - Chromium
p757
ssVfullscreen_mode
p758
I0
sVorientation
p759
Vnone
p760
sg249
S'chromium'
p761
sVfocus
p762
(lp763
sVsticky
p764
I00
sVurgent
p765
I00
sVlast_split_layout
p766
Vsplith
p767
sVfloating
p768
Vauto_off
p769
sVborder
p770
Vnormal
p771
sVid
p772
I94170778422080
sVcurrent_border_width
p773
I2
sVlayout
p774
Vsplith
p775
sVpercent
p776
F1.0
sVworkspace_layout
p777
Vdefault
p778
sVwindow
p779
I16777240
sVnodes
p780
(lp781
sVtype
p782
Vcon
p783
sVdeco_rect
p784
(dp785
g101
I0
sg102
I0
sVheight
p786
I22
sVwidth
p787
I1280
ssVswallows
p788
(lp789
sVfocused
p790
I00
sVscratchpad_state
p791
Vnone
p792
sVrect
p793
(dp794
g101
I45
sg102
I0
sVheight
p795
I755
sVwidth
p796
I1280
ssVwindow_rect
p797
(dp798
g101
I0
sg102
I2
sVheight
p799
I753
sVwidth
p800
I1276
ssVname
p801
Veokoe - Chat - Chromium
p802
sVgeometry
p803
(dp804
g101
I77
sg102
I2
sVheight
p805
I753
sVwidth
p806
I1276
ssVfloating_nodes
p807
(lp808
sVoutput
p809
VLVDS1
p810
sasVtype
p811
Vworkspace
p812
sVdeco_rect
p813
(dp814
g101
I0
sg102
I0
sVheight
p815
I0
sVwidth
p816
I0
ssVswallows
p817
(lp818
sVfocused
p819
I00
sVscratchpad_state
p820
Vnone
p821
sVrect
p822
(dp823
g101
I23
sg102
I0
sVheight
p824
I777
sVwidth
p825
I1280
ssVwindow_rect
p826
(dp827
g101
I0
sg102
I0
sVheight
p828
I0
sVwidth
p829
I0
ssVname
p830
V8\uf1d7
p831
sVgeometry
p832
(dp833
g101
I0
sg102
I0
sVheight
p834
I0
sVwidth
p835
I0
ssVgaps
p836
(dp837
Vouter
p838
I0
sVinner
p839
I0
ssVfloating_nodes
p840
(lp841
sVoutput
p842
VLVDS1
p843
sa(dp844
Vfullscreen_mode
p845
I0
sVorientation
p846
Vhorizontal
p847
sVfocus
p848
(lp849
I94170778328528
asVsticky
p850
I00
sVurgent
p851
I00
sVnum
p852
I10
sVlast_split_layout
p853
Vsplith
p854
sVfloating
p855
Vauto_off
p856
sVborder
p857
Vnormal
p858
sVid
p859
I94170778328992
sVcurrent_border_width
p860
I-1
sVlayout
p861
Vsplith
p862
sVpercent
p863
F0.1875
sVworkspace_layout
p864
Vdefault
p865
sVwindow
p866
NsVnodes
p867
(lp868
(dp869
Vwindow_properties
p870
(dp871
Vinstance
p872
Vchromium
p873
sVtransient_for
p874
NsVwindow_role
p875
Vbrowser
p876
sVclass
p877
VChromium
p878
sVtitle
p879
VInbox - olafzombie@gmail.com - Gmail - Chromium
p880
ssVfullscreen_mode
p881
I0
sVorientation
p882
Vnone
p883
sg249
S'chromium'
p884
sVfocus
p885
(lp886
sVsticky
p887
I00
sVurgent
p888
I00
sVlast_split_layout
p889
Vsplith
p890
sVfloating
p891
Vauto_off
p892
sVborder
p893
Vnormal
p894
sVid
p895
I94170778328528
sVcurrent_border_width
p896
I2
sVlayout
p897
Vsplith
p898
sVpercent
p899
F1.0
sVworkspace_layout
p900
Vdefault
p901
sVwindow
p902
I16777230
sVnodes
p903
(lp904
sVtype
p905
Vcon
p906
sVdeco_rect
p907
(dp908
g101
I0
sg102
I0
sVheight
p909
I22
sVwidth
p910
I1280
ssVswallows
p911
(lp912
sVfocused
p913
I00
sVscratchpad_state
p914
Vnone
p915
sVrect
p916
(dp917
g101
I45
sg102
I0
sVheight
p918
I755
sVwidth
p919
I1280
ssVwindow_rect
p920
(dp921
g101
I0
sg102
I2
sVheight
p922
I753
sVwidth
p923
I1276
ssVname
p924
VInbox - olafzombie@gmail.com - Gmail - Chromium
p925
sVgeometry
p926
(dp927
g101
I45
sg102
I2
sVheight
p928
I753
sVwidth
p929
I1276
ssVfloating_nodes
p930
(lp931
sVoutput
p932
VLVDS1
p933
sasVtype
p934
Vworkspace
p935
sVdeco_rect
p936
(dp937
g101
I0
sg102
I0
sVheight
p938
I0
sVwidth
p939
I0
ssVswallows
p940
(lp941
sVfocused
p942
I00
sVscratchpad_state
p943
Vnone
p944
sVrect
p945
(dp946
g101
I23
sg102
I0
sVheight
p947
I777
sVwidth
p948
I1280
ssVwindow_rect
p949
(dp950
g101
I0
sg102
I0
sVheight
p951
I0
sVwidth
p952
I0
ssVname
p953
V10\uf007
p954
sVgeometry
p955
(dp956
g101
I0
sg102
I0
sVheight
p957
I0
sVwidth
p958
I0
ssVgaps
p959
(dp960
Vouter
p961
I0
sVinner
p962
I0
ssVfloating_nodes
p963
(lp964
sVoutput
p965
VLVDS1
p966
sasVtype
p967
Vcon
p968
sVdeco_rect
p969
(dp970
g101
I0
sg102
I0
sVheight
p971
I0
sVwidth
p972
I0
ssVswallows
p973
(lp974
sVfocused
p975
I00
sVscratchpad_state
p976
Vnone
p977
sVrect
p978
(dp979
g101
I23
sg102
I0
sVheight
p980
I777
sVwidth
p981
I1280
ssVwindow_rect
p982
(dp983
g101
I0
sg102
I0
sVheight
p984
I0
sVwidth
p985
I0
ssVname
p986
Vcontent
p987
sVgeometry
p988
(dp989
g101
I0
sg102
I0
sVheight
p990
I0
sVwidth
p991
I0
ssVfloating_nodes
p992
(lp993
sVoutput
p994
VLVDS1
p995
sa(dp996
Vfullscreen_mode
p997
I0
sVorientation
p998
Vnone
p999
sVfocus
p1000
(lp1001
sVsticky
p1002
I00
sVurgent
p1003
I00
sVlast_split_layout
p1004
Vsplith
p1005
sVfloating
p1006
Vauto_off
p1007
sVborder
p1008
Vnormal
p1009
sVid
p1010
I94170778397888
sVcurrent_border_width
p1011
I-1
sVlayout
p1012
Vdockarea
p1013
sVpercent
p1014
NsVworkspace_layout
p1015
Vdefault
p1016
sVwindow
p1017
NsVnodes
p1018
(lp1019
sVtype
p1020
Vdockarea
p1021
sVdeco_rect
p1022
(dp1023
g101
I0
sg102
I0
sVheight
p1024
I0
sVwidth
p1025
I0
ssVswallows
p1026
(lp1027
(dp1028
Vdock
p1029
I3
sVinsert_where
p1030
I2
sasVfocused
p1031
I00
sVscratchpad_state
p1032
Vnone
p1033
sVrect
p1034
(dp1035
g101
I800
sg102
I0
sVheight
p1036
I0
sVwidth
p1037
I1280
ssVwindow_rect
p1038
(dp1039
g101
I0
sg102
I0
sVheight
p1040
I0
sVwidth
p1041
I0
ssVname
p1042
Vbottomdock
p1043
sVgeometry
p1044
(dp1045
g101
I0
sg102
I0
sVheight
p1046
I0
sVwidth
p1047
I0
ssVfloating_nodes
p1048
(lp1049
sVoutput
p1050
VLVDS1
p1051
sasVtype
p1052
Voutput
p1053
sVdeco_rect
p1054
(dp1055
g101
I0
sg102
I0
sVheight
p1056
I0
sVwidth
p1057
I0
ssVswallows
p1058
(lp1059
sVfocused
p1060
I00
sVscratchpad_state
p1061
Vnone
p1062
sVrect
p1063
(dp1064
g101
I0
sg102
I0
sVheight
p1065
I800
sVwidth
p1066
I1280
ssVwindow_rect
p1067
(dp1068
g101
I0
sg102
I0
sVheight
p1069
I0
sVwidth
p1070
I0
ssVname
p1071
VLVDS1
p1072
sVgeometry
p1073
(dp1074
g101
I0
sg102
I0
sVheight
p1075
I0
sVwidth
p1076
I0
ssVfloating_nodes
p1077
(lp1078
sasVtype
p1079
Vroot
p1080
sVdeco_rect
p1081
(dp1082
g101
I0
sg102
I0
sVheight
p1083
I0
sVwidth
p1084
I0
ssVswallows
p1085
(lp1086
sVfocused
p1087
I00
sVscratchpad_state
p1088
Vnone
p1089
sVrect
p1090
(dp1091
g101
I0
sg102
I0
sVheight
p1092
I800
sVwidth
p1093
I1280
ssVwindow_rect
p1094
(dp1095
g101
I0
sg102
I0
sVheight
p1096
I0
sVwidth
p1097
I0
ssVname
p1098
Vroot
p1099
sVgeometry
p1100
(dp1101
g101
I0
sg102
I0
sVheight
p1102
I0
sVwidth
p1103
I0
ssVfloating_nodes
p1104
(lp1105
s.